target datalayout = "e-m:e-p270:32:32-p271:32:32-p272:64:64-i64:64-i128:128-f80:128-n8:16:32:64-S128"
target triple = "x86_64-pc-linux-gnu"

; Function Attrs: mustprogress nounwind uwtable
define hidden noundef i32 @_ZN5o3dgc7IUpdateEPll(ptr noundef %0, i64 noundef %1) #0 {
  %3 = alloca ptr, align 8
  %4 = alloca i64, align 8
  %5 = alloca i64, align 8
  %6 = alloca i64, align 8
  store ptr %0, ptr %3, align 8
  store i64 %1, ptr %4, align 8
  call void @llvm.lifetime.start.p0(i64 8, ptr %5) #11
  %7 = load i64, ptr %4, align 8
  %8 = sub nsw i64 %7, 1
  store i64 %8, ptr %5, align 8
  call void @llvm.lifetime.start.p0(i64 8, ptr %6) #11
  store i64 2, ptr %6, align 8
  %9 = load ptr, ptr %3, align 8
  %10 = getelementptr inbounds i64, ptr %9, i64 1
  %11 = load i64, ptr %10, align 8
  %12 = ashr i64 %11, 1
  %13 = load ptr, ptr %3, align 8
  %14 = getelementptr inbounds i64, ptr %13, i64 0
  %15 = load i64, ptr %14, align 8
  %16 = sub nsw i64 %15, %12
  store i64 %16, ptr %14, align 8
  br label %17

17:                                               ; preds = %21, %2
  %18 = load i64, ptr %6, align 8
  %19 = load i64, ptr %5, align 8
  %20 = icmp slt i64 %18, %19
  br i1 %20, label %21, label %42

21:                                               ; preds = %17
  %22 = load ptr, ptr %3, align 8
  %23 = load i64, ptr %6, align 8
  %24 = sub nsw i64 %23, 1
  %25 = getelementptr inbounds i64, ptr %22, i64 %24
  %26 = load i64, ptr %25, align 8
  %27 = load ptr, ptr %3, align 8
  %28 = load i64, ptr %6, align 8
  %29 = add nsw i64 %28, 1
  %30 = getelementptr inbounds i64, ptr %27, i64 %29
  %31 = load i64, ptr %30, align 8
  %32 = add nsw i64 %26, %31
  %33 = add nsw i64 %32, 2
  %34 = ashr i64 %33, 2
  %35 = load ptr, ptr %3, align 8
  %36 = load i64, ptr %6, align 8
  %37 = getelementptr inbounds i64, ptr %35, i64 %36
  %38 = load i64, ptr %37, align 8
  %39 = sub nsw i64 %38, %34
  store i64 %39, ptr %37, align 8
  %40 = load i64, ptr %6, align 8
  %41 = add nsw i64 %40, 2
  store i64 %41, ptr %6, align 8
  br label %17, !llvm.loop !3

42:                                               ; preds = %17
  %43 = load i64, ptr %6, align 8
  %44 = load i64, ptr %5, align 8
  %45 = icmp eq i64 %43, %44
  br i1 %45, label %46, label %58

46:                                               ; preds = %42
  %47 = load ptr, ptr %3, align 8
  %48 = load i64, ptr %6, align 8
  %49 = sub nsw i64 %48, 1
  %50 = getelementptr inbounds i64, ptr %47, i64 %49
  %51 = load i64, ptr %50, align 8
  %52 = ashr i64 %51, 1
  %53 = load ptr, ptr %3, align 8
  %54 = load i64, ptr %6, align 8
  %55 = getelementptr inbounds i64, ptr %53, i64 %54
  %56 = load i64, ptr %55, align 8
  %57 = sub nsw i64 %56, %52
  store i64 %57, ptr %55, align 8
  br label %58

58:                                               ; preds = %46, %42
  call void @llvm.lifetime.end.p0(i64 8, ptr %6) #11
  call void @llvm.lifetime.end.p0(i64 8, ptr %5) #11
  ret i32 0
}