; Function Attrs: mustprogress nofree norecurse nosync nounwind memory(argmem: readwrite) uwtable
define hidden noundef i32 @_ZN5o3dgc7IUpdateEPll(ptr noundef captures(none) %0, i64 noundef %1) local_unnamed_addr #0 {
  %3 = add nsw i64 %1, -1
  %4 = getelementptr inbounds nuw i8, ptr %0, i64 8
  %5 = load i64, ptr %4, align 8
  %6 = ashr i64 %5, 1
  %7 = load i64, ptr %0, align 8
  %8 = sub nsw i64 %7, %6
  store i64 %8, ptr %0, align 8
  %9 = icmp sgt i64 %1, 3
  br i1 %9, label %.lr.ph, label %._crit_edge

.lr.ph:                                           ; preds = %2, %.lr.ph
  %.018 = phi i64 [ %21, %.lr.ph ], [ 2, %2 ]
  %10 = getelementptr i64, ptr %0, i64 %.018
  %11 = getelementptr i8, ptr %10, i64 -8
  %12 = load i64, ptr %11, align 8
  %13 = or disjoint i64 %.018, 1
  %14 = getelementptr inbounds nuw i64, ptr %0, i64 %13
  %15 = load i64, ptr %14, align 8
  %16 = add i64 %12, 2
  %17 = add i64 %16, %15
  %18 = ashr i64 %17, 2
  %19 = load i64, ptr %10, align 8
  %20 = sub nsw i64 %19, %18
  store i64 %20, ptr %10, align 8
  %21 = add nuw nsw i64 %.018, 2
  %22 = icmp slt i64 %21, %3
  br i1 %22, label %.lr.ph, label %._crit_edge, !llvm.loop !3

._crit_edge:                                      ; preds = %.lr.ph, %2
  %.0.lcssa = phi i64 [ 2, %2 ], [ %21, %.lr.ph ]
  %23 = icmp eq i64 %.0.lcssa, %3
  br i1 %23, label %24, label %31

24:                                               ; preds = %._crit_edge
  %25 = getelementptr i64, ptr %0, i64 %3
  %26 = getelementptr i8, ptr %25, i64 -8
  %27 = load i64, ptr %26, align 8
  %28 = ashr i64 %27, 1
  %29 = load i64, ptr %25, align 8
  %30 = sub nsw i64 %29, %28
  store i64 %30, ptr %25, align 8
  br label %31

31:                                               ; preds = %24, %._crit_edge
  ret i32 0
}